; Function Attrs: mustprogress nounwind uwtable
define dso_local void @_ZN4llvm17VLIWResourceModelC2ERKNS_19TargetSubtargetInfoEPKNS_16TargetSchedModelE(ptr noundef nonnull align 8 dereferenceable(100) %0, ptr noundef nonnull align 8 dereferenceable(288) %1, ptr noundef %2) unnamed_addr #0 align 2 {
  store ptr getelementptr inbounds inrange(-16, 56) (i8, ptr @_ZTVN4llvm17VLIWResourceModelE, i64 16), ptr %0, align 8
  %4 = getelementptr inbounds nuw i8, ptr %0, i64 8
  %5 = load ptr, ptr %1, align 8
  %6 = getelementptr inbounds i8, ptr %5, i64 128
  %7 = load ptr, ptr %6, align 8
  %8 = tail call noundef ptr %7(ptr noundef nonnull align 8 dereferenceable(288) %1) #15
  store ptr %8, ptr %4, align 8
  %9 = getelementptr inbounds nuw i8, ptr %0, i64 24
  store ptr %2, ptr %9, align 8
  %10 = getelementptr inbounds nuw i8, ptr %0, i64 32
  %11 = getelementptr inbounds i8, ptr %0, i64 48
  tail call void @_ZN4llvm15SmallVectorBaseIjEC2EPvm(ptr noundef nonnull align 8 dereferenceable(16) %10, ptr noundef nonnull %11, i64 noundef 6) #15
  %12 = getelementptr inbounds nuw i8, ptr %0, i64 96
  store i32 0, ptr %12, align 8
  %13 = load ptr, ptr %0, align 8
  %14 = getelementptr inbounds i8, ptr %13, i64 48
  %15 = load ptr, ptr %14, align 8
  %16 = tail call noundef ptr %15(ptr noundef nonnull align 8 dereferenceable(100) %0, ptr noundef nonnull align 8 dereferenceable(288) %1) #15
  %17 = getelementptr inbounds nuw i8, ptr %0, i64 16
  store ptr %16, ptr %17, align 8
  %18 = load ptr, ptr %9, align 8
  %19 = load i32, ptr %18, align 8
  %20 = zext i32 %19 to i64
  %21 = tail call noundef i64 @_ZNK4llvm15SmallVectorBaseIjE8capacityEv(ptr noundef nonnull align 8 dereferenceable(16) %10) #15
  %22 = icmp ult i64 %21, %20
  br i1 %22, label %23, label %_ZN4llvm15SmallVectorImplIPNS_5SUnitEE7reserveEm.exit

23:                                               ; preds = %3
  tail call void @_ZN4llvm15SmallVectorBaseIjE8grow_podEPvmm(ptr noundef nonnull align 8 dereferenceable(16) %10, ptr noundef nonnull %11, i64 noundef %20, i64 noundef 8) #15
  br label %_ZN4llvm15SmallVectorImplIPNS_5SUnitEE7reserveEm.exit

_ZN4llvm15SmallVectorImplIPNS_5SUnitEE7reserveEm.exit: ; preds = %3, %23
  %24 = tail call noundef i64 @_ZNK4llvm15SmallVectorBaseIjE4sizeEv(ptr noundef nonnull align 8 dereferenceable(16) %10) #15
  %25 = getelementptr inbounds i8, ptr %0, i64 40
  store i32 0, ptr %25, align 8
  %26 = load ptr, ptr %17, align 8
  %27 = getelementptr inbounds i8, ptr %26, i64 40
  store i64 1, ptr %27, align 8
  %28 = getelementptr inbounds i8, ptr %26, i64 24
  %29 = load ptr, ptr %28, align 8
  %.not.i.i = icmp eq ptr %29, null
  br i1 %.not.i.i, label %_ZN4llvm13DFAPacketizer14clearResourcesEv.exit, label %30

30:                                               ; preds = %_ZN4llvm15SmallVectorImplIPNS_5SUnitEE7reserveEm.exit
  tail call void @_ZN4llvm8internal14NfaTranscriber5resetEv(ptr noundef nonnull align 8 dereferenceable(400) %29)
  br label %_ZN4llvm13DFAPacketizer14clearResourcesEv.exit

_ZN4llvm13DFAPacketizer14clearResourcesEv.exit:   ; preds = %_ZN4llvm15SmallVectorImplIPNS_5SUnitEE7reserveEm.exit, %30
  ret void
}